; Function Attrs: mustprogress nounwind uwtable
define internal fastcc void @"_ZZN5clang4ento8RangeSet7Factory5uniteERKNS1_13ContainerTypeES5_ENK3$_0clEPKNS0_5RangeES9_"(ptr dead_on_unwind noalias writable align 8 %0, ptr nocapture noundef nonnull readonly align 8 dereferenceable(8) %1, ptr noundef %2, ptr noundef %3) unnamed_addr #1 align 2 {
  %5 = load ptr, ptr %1, align 8
  tail call void @_ZN4llvm15SmallVectorImplIN5clang4ento5RangeEE6appendIPKS3_vEEvT_S8_(ptr noundef nonnull align 8 dereferenceable(16) %5, ptr noundef %2, ptr noundef %3)
  %6 = load ptr, ptr %1, align 8
  %7 = getelementptr inbounds i8, ptr %0, i64 16
  tail call void @_ZN4llvm15SmallVectorBaseIjEC2EPvm(ptr noundef nonnull align 8 dereferenceable(16) %0, ptr noundef nonnull %7, i64 noundef 4) #22
  %8 = tail call noundef zeroext i1 @_ZNK4llvm15SmallVectorBaseIjE5emptyEv(ptr noundef nonnull align 8 dereferenceable(16) %6) #22
  br i1 %8, label %_ZN5clang4ento8RangeSet13ContainerTypeC2ERKS2_.exit, label %9

9:                                                ; preds = %4
  %10 = tail call noundef nonnull align 8 dereferenceable(16) ptr @_ZN4llvm15SmallVectorImplIN5clang4ento5RangeEEaSERKS4_(ptr noundef nonnull align 8 dereferenceable(16) %0, ptr noundef nonnull align 8 dereferenceable(16) %6)
  br label %_ZN5clang4ento8RangeSet13ContainerTypeC2ERKS2_.exit

_ZN5clang4ento8RangeSet13ContainerTypeC2ERKS2_.exit: ; preds = %4, %9
  %11 = getelementptr inbounds i8, ptr %0, i64 80
  %12 = getelementptr inbounds i8, ptr %6, i64 80
  %13 = load i64, ptr %12, align 8
  store i64 %13, ptr %11, align 8
  ret void
}